target datalayout = "e-m:e-p270:32:32-p271:32:32-p272:64:64-i64:64-i128:128-f80:128-n8:16:32:64-S128"
target triple = "x86_64-pc-linux-gnu"

%struct.Gia_Man_t_ = type { ptr, ptr, i32, i32, i32, i32, ptr, ptr, i32, i32, i32, ptr, ptr, %struct.Vec_Int_t_, %struct.Vec_Int_t_, i32, i32, i32, %struct.Vec_Int_t_, ptr, ptr, ptr, i32, i32, i32, i32, ptr, ptr, ptr, ptr, ptr, i32, i32, ptr, i32, ptr, ptr, ptr, ptr, ptr, ptr, ptr, ptr, ptr, ptr, ptr, ptr, ptr, ptr, ptr, ptr, ptr, ptr, %struct.Vec_Int_t_, %struct.Vec_Int_t_, ptr, ptr, ptr, ptr, ptr, ptr, ptr, ptr, ptr, ptr, ptr, ptr, ptr, ptr, ptr, ptr, ptr, ptr, ptr, ptr, ptr, i32, float, float, ptr, ptr, i32, ptr, ptr, ptr, ptr, ptr, ptr, ptr, ptr, ptr, ptr, ptr, ptr, ptr, ptr, ptr, i64, i64, ptr, ptr, i32, i32, i32, i32, i32, i32, i32, i32, i32, i32, i32, i32, ptr, ptr, ptr, ptr, ptr, ptr, ptr, ptr, i32, i32, i32, ptr, i32, i32, ptr, ptr, ptr, ptr, ptr, ptr, i32, i32, ptr, %struct.Vec_Int_t_, %struct.Vec_Int_t_, %struct.Vec_Int_t_, ptr, ptr, ptr }
%struct.Vec_Int_t_ = type { i32, i32, ptr }
%struct.Gia_Obj_t_ = type <{ i64, i32 }>
%struct.Abc_Cex_t_ = type { i32, i32, i32, i32, i32, [0 x i32] }
%struct.Vec_Wrd_t_ = type { i32, i32, ptr }

; Function Attrs: nounwind uwtable
define internal ptr @Vec_WrdEntryP(ptr noundef %0, i32 noundef %1) #0 {
  %3 = alloca ptr, align 8
  %4 = alloca i32, align 4
  store ptr %0, ptr %3, align 8
  store i32 %1, ptr %4, align 4
  %5 = load ptr, ptr %3, align 8
  %6 = getelementptr inbounds %struct.Vec_Wrd_t_, ptr %5, i32 0, i32 2
  %7 = load ptr, ptr %6, align 8
  %8 = load i32, ptr %4, align 4
  %9 = sext i32 %8 to i64
  %10 = getelementptr inbounds i64, ptr %7, i64 %9
  ret ptr %10
}

; Function Attrs: nounwind uwtable
define internal ptr @Gia_ManObj(ptr noundef %0, i32 noundef %1) #0 {
  %3 = alloca ptr, align 8
  %4 = alloca i32, align 4
  store ptr %0, ptr %3, align 8
  store i32 %1, ptr %4, align 4
  %5 = load ptr, ptr %3, align 8
  %6 = getelementptr inbounds %struct.Gia_Man_t_, ptr %5, i32 0, i32 6
  %7 = load ptr, ptr %6, align 8
  %8 = load i32, ptr %4, align 4
  %9 = sext i32 %8 to i64
  %10 = getelementptr inbounds %struct.Gia_Obj_t_, ptr %7, i64 %9
  ret ptr %10
}

; Function Attrs: nounwind uwtable
define internal i32 @Vec_IntEntry(ptr noundef %0, i32 noundef %1) #0 {
  %3 = alloca ptr, align 8
  %4 = alloca i32, align 4
  store ptr %0, ptr %3, align 8
  store i32 %1, ptr %4, align 4
  %5 = load ptr, ptr %3, align 8
  %6 = getelementptr inbounds %struct.Vec_Int_t_, ptr %5, i32 0, i32 2
  %7 = load ptr, ptr %6, align 8
  %8 = load i32, ptr %4, align 4
  %9 = sext i32 %8 to i64
  %10 = getelementptr inbounds i32, ptr %7, i64 %9
  %11 = load i32, ptr %10, align 4
  ret i32 %11
}

; Function Attrs: nounwind uwtable
define internal void @Abc_InfoSetBit(ptr noundef %0, i32 noundef %1) #0 {
  %3 = alloca ptr, align 8
  %4 = alloca i32, align 4
  store ptr %0, ptr %3, align 8
  store i32 %1, ptr %4, align 4
  %5 = load i32, ptr %4, align 4
  %6 = and i32 %5, 31
  %7 = shl i32 1, %6
  %8 = load ptr, ptr %3, align 8
  %9 = load i32, ptr %4, align 4
  %10 = ashr i32 %9, 5
  %11 = sext i32 %10 to i64
  %12 = getelementptr inbounds i32, ptr %8, i64 %11
  %13 = load i32, ptr %12, align 4
  %14 = or i32 %13, %7
  store i32 %14, ptr %12, align 4
  ret void
}

; Function Attrs: nounwind uwtable
define internal i32 @Abc_InfoHasBit(ptr noundef %0, i32 noundef %1) #0 {
  %3 = alloca ptr, align 8
  %4 = alloca i32, align 4
  store ptr %0, ptr %3, align 8
  store i32 %1, ptr %4, align 4
  %5 = load ptr, ptr %3, align 8
  %6 = load i32, ptr %4, align 4
  %7 = ashr i32 %6, 5
  %8 = sext i32 %7 to i64
  %9 = getelementptr inbounds i32, ptr %5, i64 %8
  %10 = load i32, ptr %9, align 4
  %11 = load i32, ptr %4, align 4
  %12 = and i32 %11, 31
  %13 = shl i32 1, %12
  %14 = and i32 %10, %13
  %15 = icmp ugt i32 %14, 0
  %16 = zext i1 %15 to i32
  ret i32 %16
}

; Function Attrs: nounwind uwtable
define internal ptr @Cec2_ObjSim(ptr noundef %0, i32 noundef %1) #0 {
  %3 = alloca ptr, align 8
  %4 = alloca i32, align 4
  store ptr %0, ptr %3, align 8
  store i32 %1, ptr %4, align 4
  %5 = load ptr, ptr %3, align 8
  %6 = getelementptr inbounds %struct.Gia_Man_t_, ptr %5, i32 0, i32 113
  %7 = load ptr, ptr %6, align 8
  %8 = load ptr, ptr %3, align 8
  %9 = getelementptr inbounds %struct.Gia_Man_t_, ptr %8, i32 0, i32 109
  %10 = load i32, ptr %9, align 8
  %11 = load i32, ptr %4, align 4
  %12 = mul nsw i32 %10, %11
  %13 = call ptr @Vec_WrdEntryP(ptr noundef %7, i32 noundef %12)
  ret ptr %13
}

; Function Attrs: nounwind uwtable
define internal i32 @Gia_ObjId(ptr noundef %0, ptr noundef %1) #0 {
  %3 = alloca ptr, align 8
  %4 = alloca ptr, align 8
  store ptr %0, ptr %3, align 8
  store ptr %1, ptr %4, align 8
  %5 = load ptr, ptr %4, align 8
  %6 = load ptr, ptr %3, align 8
  %7 = getelementptr inbounds %struct.Gia_Man_t_, ptr %6, i32 0, i32 6
  %8 = load ptr, ptr %7, align 8
  %9 = ptrtoint ptr %5 to i64
  %10 = ptrtoint ptr %8 to i64
  %11 = sub i64 %9, %10
  %12 = sdiv exact i64 %11, 12
  %13 = trunc i64 %12 to i32
  ret i32 %13
}

; Function Attrs: nounwind uwtable
define internal ptr @Gia_ManCi(ptr noundef %0, i32 noundef %1) #0 {
  %3 = alloca ptr, align 8
  %4 = alloca i32, align 4
  store ptr %0, ptr %3, align 8
  store i32 %1, ptr %4, align 4
  %5 = load ptr, ptr %3, align 8
  %6 = load ptr, ptr %3, align 8
  %7 = getelementptr inbounds %struct.Gia_Man_t_, ptr %6, i32 0, i32 11
  %8 = load ptr, ptr %7, align 8
  %9 = load i32, ptr %4, align 4
  %10 = call i32 @Vec_IntEntry(ptr noundef %8, i32 noundef %9)
  %11 = call ptr @Gia_ManObj(ptr noundef %5, i32 noundef %10)
  ret ptr %11
}

; Function Attrs: nounwind uwtable
define internal i32 @Vec_IntSize(ptr noundef %0) #0 {
  %2 = alloca ptr, align 8
  store ptr %0, ptr %2, align 8
  %3 = load ptr, ptr %2, align 8
  %4 = getelementptr inbounds %struct.Vec_Int_t_, ptr %3, i32 0, i32 1
  %5 = load i32, ptr %4, align 4
  ret i32 %5
}

; Function Attrs: nounwind uwtable
define internal i32 @Gia_ManCiNum(ptr noundef %0) #0 {
  %2 = alloca ptr, align 8
  store ptr %0, ptr %2, align 8
  %3 = load ptr, ptr %2, align 8
  %4 = getelementptr inbounds %struct.Gia_Man_t_, ptr %3, i32 0, i32 11
  %5 = load ptr, ptr %4, align 8
  %6 = call i32 @Vec_IntSize(ptr noundef %5)
  ret i32 %6
}

; Function Attrs: nounwind uwtable
define ptr @Cec2_ManDeriveCex(ptr noundef %0, i32 noundef %1, i32 noundef %2) #0 {
  %4 = alloca ptr, align 8
  %5 = alloca ptr, align 8
  %6 = alloca i32, align 4
  %7 = alloca i32, align 4
  %8 = alloca ptr, align 8
  %9 = alloca i32, align 4
  %10 = alloca i32, align 4
  store ptr %0, ptr %5, align 8
  store i32 %1, ptr %6, align 4
  store i32 %2, ptr %7, align 4
  %11 = load ptr, ptr %5, align 8
  %12 = call i32 @Gia_ManCiNum(ptr noundef %11)
  %13 = call ptr @Abc_CexAlloc(i32 noundef 0, i32 noundef %12, i32 noundef 1)
  store ptr %13, ptr %8, align 8
  %14 = load i32, ptr %6, align 4
  %15 = load ptr, ptr %8, align 8
  %16 = getelementptr inbounds %struct.Abc_Cex_t_, ptr %15, i32 0, i32 0
  store i32 %14, ptr %16, align 4
  %17 = load i32, ptr %7, align 4
  %18 = icmp eq i32 %17, -1
  br i1 %18, label %19, label %21

19:                                               ; preds = %3
  %20 = load ptr, ptr %8, align 8
  store ptr %20, ptr %4, align 8
  br label %56

21:                                               ; preds = %3
  store i32 0, ptr %9, align 4
  br label %22

22:                                               ; preds = %51, %21
  %23 = load i32, ptr %9, align 4
  %24 = load ptr, ptr %5, align 8
  %25 = getelementptr inbounds %struct.Gia_Man_t_, ptr %24, i32 0, i32 11
  %26 = load ptr, ptr %25, align 8
  %27 = call i32 @Vec_IntSize(ptr noundef %26)
  %28 = icmp slt i32 %23, %27
  br i1 %28, label %29, label %36

29:                                               ; preds = %22
  %30 = load ptr, ptr %5, align 8
  %31 = load ptr, ptr %5, align 8
  %32 = load i32, ptr %9, align 4
  %33 = call ptr @Gia_ManCi(ptr noundef %31, i32 noundef %32)
  %34 = call i32 @Gia_ObjId(ptr noundef %30, ptr noundef %33)
  store i32 %34, ptr %10, align 4
  %35 = icmp ne i32 %34, 0
  br label %36

36:                                               ; preds = %29, %22
  %37 = phi i1 [ false, %22 ], [ %35, %29 ]
  br i1 %37, label %38, label %54

38:                                               ; preds = %36
  %39 = load ptr, ptr %5, align 8
  %40 = load i32, ptr %10, align 4
  %41 = call ptr @Cec2_ObjSim(ptr noundef %39, i32 noundef %40)
  %42 = load i32, ptr %7, align 4
  %43 = call i32 @Abc_InfoHasBit(ptr noundef %41, i32 noundef %42)
  %44 = icmp ne i32 %43, 0
  br i1 %44, label %45, label %50

45:                                               ; preds = %38
  %46 = load ptr, ptr %8, align 8
  %47 = getelementptr inbounds %struct.Abc_Cex_t_, ptr %46, i32 0, i32 5
  %48 = getelementptr inbounds [0 x i32], ptr %47, i64 0, i64 0
  %49 = load i32, ptr %9, align 4
  call void @Abc_InfoSetBit(ptr noundef %48, i32 noundef %49)
  br label %50

50:                                               ; preds = %45, %38
  br label %51

51:                                               ; preds = %50
  %52 = load i32, ptr %9, align 4
  %53 = add nsw i32 %52, 1
  store i32 %53, ptr %9, align 4
  br label %22, !llvm.loop !14

54:                                               ; preds = %36
  %55 = load ptr, ptr %8, align 8
  store ptr %55, ptr %4, align 8
  br label %56

56:                                               ; preds = %54, %19
  %57 = load ptr, ptr %4, align 8
  ret ptr %57
}