; Function Attrs: nounwind uwtable
define noundef ptr @Cec2_ManDeriveCex(ptr noundef readonly captures(none) %0, i32 noundef %1, i32 noundef %2) local_unnamed_addr #2 {
  %4 = getelementptr i8, ptr %0, i64 64
  %.val25 = load ptr, ptr %4, align 8
  %5 = getelementptr i8, ptr %.val25, i64 4
  %.val25.val = load i32, ptr %5, align 4
  %6 = tail call ptr @Abc_CexAlloc(i32 noundef 0, i32 noundef %.val25.val, i32 noundef 1) #21
  store i32 %1, ptr %6, align 4
  %7 = icmp eq i32 %2, -1
  br i1 %7, label %.critedge, label %.preheader

.preheader:                                       ; preds = %3
  %8 = load ptr, ptr %4, align 8
  %9 = getelementptr i8, ptr %8, i64 4
  %.val2026 = load i32, ptr %9, align 4
  %10 = icmp sgt i32 %.val2026, 0
  br i1 %10, label %.lr.ph, label %.critedge

.lr.ph:                                           ; preds = %.preheader
  %11 = getelementptr i8, ptr %0, i64 816
  %12 = getelementptr i8, ptr %0, i64 832
  %13 = ashr i32 %2, 5
  %14 = sext i32 %13 to i64
  %15 = and i32 %2, 31
  %16 = shl nuw i32 1, %15
  %17 = getelementptr inbounds nuw i8, ptr %6, i64 20
  br label %18

18:                                               ; preds = %.lr.ph, %40
  %19 = phi ptr [ %8, %.lr.ph ], [ %41, %40 ]
  %indvars.iv = phi i64 [ 0, %.lr.ph ], [ %indvars.iv.next, %40 ]
  %20 = getelementptr i8, ptr %19, i64 8
  %.val22.val = load ptr, ptr %20, align 8
  %21 = getelementptr inbounds nuw i32, ptr %.val22.val, i64 %indvars.iv
  %22 = load i32, ptr %21, align 4
  %.not = icmp eq i32 %22, 0
  br i1 %.not, label %.critedge, label %23

23:                                               ; preds = %18
  %.val23 = load i32, ptr %11, align 8
  %.val24 = load ptr, ptr %12, align 8
  %24 = getelementptr i8, ptr %.val24, i64 8
  %.val24.val = load ptr, ptr %24, align 8
  %25 = mul nsw i32 %.val23, %22
  %26 = sext i32 %25 to i64
  %27 = getelementptr inbounds i64, ptr %.val24.val, i64 %26
  %28 = getelementptr inbounds i32, ptr %27, i64 %14
  %29 = load i32, ptr %28, align 4
  %30 = and i32 %29, %16
  %.not19 = icmp eq i32 %30, 0
  br i1 %.not19, label %40, label %31

31:                                               ; preds = %23
  %32 = trunc nuw nsw i64 %indvars.iv to i32
  %33 = and i32 %32, 31
  %34 = shl nuw i32 1, %33
  %35 = lshr i64 %indvars.iv, 5
  %36 = and i64 %35, 134217727
  %37 = getelementptr inbounds nuw i32, ptr %17, i64 %36
  %38 = load i32, ptr %37, align 4
  %39 = or i32 %38, %34
  store i32 %39, ptr %37, align 4
  %.pre = load ptr, ptr %4, align 8
  br label %40

40:                                               ; preds = %23, %31
  %41 = phi ptr [ %19, %23 ], [ %.pre, %31 ]
  %indvars.iv.next = add nuw nsw i64 %indvars.iv, 1
  %42 = getelementptr i8, ptr %41, i64 4
  %.val20 = load i32, ptr %42, align 4
  %43 = sext i32 %.val20 to i64
  %44 = icmp slt i64 %indvars.iv.next, %43
  br i1 %44, label %18, label %.critedge, !llvm.loop !14

.critedge:                                        ; preds = %40, %18, %.preheader, %3
  ret ptr %6
}